; Function Attrs: mustprogress nounwind uwtable
define hidden void @_ZN6hermes10SwitchInstC2EPNS_5ValueEPNS_10BasicBlockERKN4llvh11SmallVectorIPNS_7LiteralELj8EEERKNS6_IS4_Lj8EEE(ptr noundef nonnull align 8 dereferenceable(132) initializes((0, 16), (18, 22)) %this, ptr noundef %input, ptr noundef %defaultBlock, ptr noundef nonnull readonly align 8 captures(none) dereferenceable(80) %values, ptr noundef nonnull readonly align 8 captures(none) dereferenceable(80) %blocks) unnamed_addr #0 align 2 {
entry:
  tail call void @llvm.memset.p0.i64(ptr noundef nonnull align 8 dereferenceable(132) %this, i8 0, i64 16, i1 false)
  %0 = getelementptr inbounds nuw i8, ptr %this, i64 16
  %valueType.i.i.i = getelementptr inbounds nuw i8, ptr %this, i64 18
  store i16 1023, ptr %valueType.i.i.i, align 2
  %numBitmask_.i.i.i.i = getelementptr inbounds nuw i8, ptr %this, i64 20
  store i16 7, ptr %numBitmask_.i.i.i.i, align 4
  %Users.i.i.i = getelementptr inbounds nuw i8, ptr %this, i64 24
  %add.ptr.i.i.i.i.i.i.i.i = getelementptr inbounds nuw i8, ptr %this, i64 40
  store ptr %add.ptr.i.i.i.i.i.i.i.i, ptr %Users.i.i.i, align 8
  %Size.i.i.i.i.i.i.i.i = getelementptr inbounds nuw i8, ptr %this, i64 32
  store i32 0, ptr %Size.i.i.i.i.i.i.i.i, align 8
  %Capacity2.i.i.i.i.i.i.i.i = getelementptr inbounds nuw i8, ptr %this, i64 36
  store i32 2, ptr %Capacity2.i.i.i.i.i.i.i.i, align 4
  store i8 80, ptr %0, align 8
  %Parent.i.i = getelementptr inbounds nuw i8, ptr %this, i64 56
  store ptr null, ptr %Parent.i.i, align 8
  %Operands.i.i = getelementptr inbounds nuw i8, ptr %this, i64 64
  %add.ptr.i.i.i.i.i.i.i = getelementptr inbounds nuw i8, ptr %this, i64 80
  store ptr %add.ptr.i.i.i.i.i.i.i, ptr %Operands.i.i, align 8
  %Size.i.i.i.i.i.i.i = getelementptr inbounds nuw i8, ptr %this, i64 72
  store i32 0, ptr %Size.i.i.i.i.i.i.i, align 8
  %Capacity2.i.i.i.i.i.i.i = getelementptr inbounds nuw i8, ptr %this, i64 76
  store i32 2, ptr %Capacity2.i.i.i.i.i.i.i, align 4
  %SourceLevelScope.i.i = getelementptr inbounds nuw i8, ptr %this, i64 112
  tail call void @llvm.memset.p0.i64(ptr noundef nonnull align 8 dereferenceable(20) %SourceLevelScope.i.i, i8 0, i64 20, i1 false)
  tail call void @_ZN6hermes11Instruction11pushOperandEPNS_5ValueE(ptr noundef nonnull align 8 dereferenceable(132) %this, ptr noundef %input) #15
  %1 = icmp eq ptr %defaultBlock, null
  %add.ptr = getelementptr inbounds nuw i8, ptr %defaultBlock, i64 16
  %spec.select = select i1 %1, ptr null, ptr %add.ptr
  tail call void @_ZN6hermes11Instruction11pushOperandEPNS_5ValueE(ptr noundef nonnull align 8 dereferenceable(132) %this, ptr noundef %spec.select) #15
  %Size.i = getelementptr inbounds nuw i8, ptr %values, i64 8
  %2 = load i32, ptr %Size.i, align 8
  %cmp6 = icmp sgt i32 %2, 0
  br i1 %cmp6, label %for.body.preheader, label %for.end

for.body.preheader:                               ; preds = %entry
  %wide.trip.count = zext nneg i32 %2 to i64
  br label %for.body

for.body:                                         ; preds = %for.body.preheader, %for.body
  %indvars.iv = phi i64 [ 0, %for.body.preheader ], [ %indvars.iv.next, %for.body ]
  %3 = load ptr, ptr %values, align 8
  %arrayidx.i = getelementptr inbounds nuw ptr, ptr %3, i64 %indvars.iv
  %4 = load ptr, ptr %arrayidx.i, align 8
  tail call void @_ZN6hermes11Instruction11pushOperandEPNS_5ValueE(ptr noundef nonnull align 8 dereferenceable(132) %this, ptr noundef %4) #15
  %5 = load ptr, ptr %blocks, align 8
  %arrayidx.i14 = getelementptr inbounds nuw ptr, ptr %5, i64 %indvars.iv
  %6 = load ptr, ptr %arrayidx.i14, align 8
  %7 = icmp eq ptr %6, null
  %add.ptr7 = getelementptr inbounds nuw i8, ptr %6, i64 16
  %spec.select1 = select i1 %7, ptr null, ptr %add.ptr7
  tail call void @_ZN6hermes11Instruction11pushOperandEPNS_5ValueE(ptr noundef nonnull align 8 dereferenceable(132) %this, ptr noundef %spec.select1) #15
  %indvars.iv.next = add nuw nsw i64 %indvars.iv, 1
  %exitcond.not = icmp eq i64 %indvars.iv.next, %wide.trip.count
  br i1 %exitcond.not, label %for.end, label %for.body, !llvm.loop !7

for.end:                                          ; preds = %for.body, %entry
  ret void
}